#include <math.h>
#include <stdio.h>
#include <stdlib.h>
#include <string.h>
#define LEN 100
#define ASCII 100
#define MAX_N 100
#define MAX_N 100
#define L 100
#define MAX 100
#define ASC 100
#define null 0
#define Len 100
#define M 100
#define SUM 100
#define NUMBER 100
#define SIZE 100
#define N 100
#define Max 100
#define X 100
#define Y 100
#define A 100
#define MAXN 100
#define MAXSIZE 100
void main ()
{
     int n,a[1000],i,l,j,max,s[26]={0};
     char c[1000][27],w;
     scanf ("%d",&n);
     for (i=0;i<n;i++)
     {
     scanf ("%d%s",&a[i],c[i]);
     l=strlen(c[i]);
     for (j=0;j<l;j++)
     {
         s[c[i][j]-65]++;
     }
     }
     max=s[0];
     w='A';
     for (i=1;i<26;i++)
     {
     if (s[i]>max)
     {
                  max=s[i];
                  w=i+65;
     }
     }
     printf ("%c\n%d\n",w,max);
     for (i=0;i<n;i++)
     {
         for (j=0;c[i][j]!='\0';j++)
         {
             if (c[i][j]==w)
             {
                            printf ("%d\n",a[i]);
                            break;
             }
         }
     }

}
